; Function Attrs: mustprogress uwtable
define dso_local void @_ZNK4Pool4DumpEv(ptr noundef nonnull align 8 dereferenceable(88) %0) local_unnamed_addr #1 align 2 {
  %2 = tail call noundef ptr @_ZNKSt7__cxx1112basic_stringIcSt11char_traitsIcESaIcEE5c_strEv(ptr noundef nonnull align 8 dereferenceable(32) %0) #21
  %3 = getelementptr inbounds i8, ptr %0, i64 32
  %4 = load i32, ptr %3, align 8
  %5 = getelementptr inbounds i8, ptr %0, i64 36
  %6 = load i32, ptr %5, align 4
  %7 = tail call i32 (ptr, ...) @printf(ptr noundef nonnull dereferenceable(1) @.str, ptr noundef %2, i32 noundef %4, i32 noundef %6)
  %8 = getelementptr inbounds i8, ptr %0, i64 64
  %9 = load ptr, ptr %8, align 8
  %10 = getelementptr inbounds i8, ptr %0, i64 48
  %.not4 = icmp eq ptr %9, %10
  br i1 %.not4, label %._crit_edge, label %.lr.ph

.lr.ph:                                           ; preds = %1, %.lr.ph
  %.sroa.01.05 = phi ptr [ %13, %.lr.ph ], [ %9, %1 ]
  %putchar = tail call i32 @putchar(i32 9)
  %11 = getelementptr inbounds i8, ptr %.sroa.01.05, i64 32
  %12 = load ptr, ptr %11, align 8
  tail call void @_ZNK4Edge4DumpEPKc(ptr noundef nonnull align 8 dereferenceable(156) %12, ptr noundef nonnull @.str.2)
  %13 = tail call noundef ptr @_ZSt18_Rb_tree_incrementPKSt18_Rb_tree_node_base(ptr noundef %.sroa.01.05) #19
  %.not = icmp eq ptr %13, %10
  br i1 %.not, label %._crit_edge, label %.lr.ph, !llvm.loop !9

._crit_edge:                                      ; preds = %.lr.ph, %1
  ret void
}